target datalayout = "e-m:e-p270:32:32-p271:32:32-p272:64:64-i64:64-i128:128-f80:128-n8:16:32:64-S128"
target triple = "x86_64-pc-linux-gnu"

%struct.t_5VW_Capture_Header = type { %struct.t_5VW_Info_Header, %struct.t_5VW_Attributes_Header, i32, %struct.t_5VW_Attributes_Header, i32 }
%struct.t_5VW_Info_Header = type { i32, i32, i32, i32, i32, [3 x i32] }
%struct.t_5VW_Attributes_Header = type { i32, i16, i16 }
%struct.wtap_dumper = type { ptr, i32, i32, i32, i32, i8, i64, ptr, ptr, ptr, ptr, ptr, ptr, ptr, ptr, ptr, ptr, ptr, ptr, ptr, i32, i32, i32 }
%struct._5views_dump_t = type { i32 }

@wtap_encap = internal constant [2 x i32] [i32 -1, i32 402657280], align 4

; Function Attrs: null_pointer_is_valid sspstrong uwtable
define internal zeroext i1 @_5views_dump_finish(ptr noundef %0, ptr noundef %1, ptr noundef %2) #0 {
  %4 = alloca i1, align 1
  %5 = alloca ptr, align 8
  %6 = alloca ptr, align 8
  %7 = alloca ptr, align 8
  %8 = alloca ptr, align 8
  %9 = alloca %struct.t_5VW_Capture_Header, align 4
  %10 = alloca i32, align 4
  store ptr %0, ptr %5, align 8
  store ptr %1, ptr %6, align 8
  store ptr %2, ptr %7, align 8
  call void @llvm.lifetime.start.p0(i64 8, ptr %8) #9
  %11 = load ptr, ptr %5, align 8
  %12 = getelementptr inbounds nuw %struct.wtap_dumper, ptr %11, i32 0, i32 7
  %13 = load ptr, ptr %12, align 8
  store ptr %13, ptr %8, align 8
  call void @llvm.lifetime.start.p0(i64 56, ptr %9) #9
  %14 = load ptr, ptr %5, align 8
  %15 = load ptr, ptr %6, align 8
  %16 = call i64 @wtap_dump_file_seek(ptr noundef %14, i64 noundef 0, i32 noundef 0, ptr noundef %15)
  %17 = icmp eq i64 %16, -1
  br i1 %17, label %18, label %19

18:                                               ; preds = %3
  store i1 false, ptr %4, align 1
  store i32 1, ptr %10, align 4
  br label %69

19:                                               ; preds = %3
  %20 = getelementptr inbounds nuw %struct.t_5VW_Capture_Header, ptr %9, i32 0, i32 0
  %21 = getelementptr inbounds nuw %struct.t_5VW_Info_Header, ptr %20, i32 0, i32 0
  store i32 -1431655766, ptr %21, align 4
  %22 = getelementptr inbounds nuw %struct.t_5VW_Capture_Header, ptr %9, i32 0, i32 0
  %23 = getelementptr inbounds nuw %struct.t_5VW_Info_Header, ptr %22, i32 0, i32 1
  store i32 32, ptr %23, align 4
  %24 = getelementptr inbounds nuw %struct.t_5VW_Capture_Header, ptr %9, i32 0, i32 0
  %25 = getelementptr inbounds nuw %struct.t_5VW_Info_Header, ptr %24, i32 0, i32 2
  store i32 65536, ptr %25, align 4
  %26 = getelementptr inbounds nuw %struct.t_5VW_Capture_Header, ptr %9, i32 0, i32 0
  %27 = getelementptr inbounds nuw %struct.t_5VW_Info_Header, ptr %26, i32 0, i32 3
  store i32 24, ptr %27, align 4
  %28 = load ptr, ptr %5, align 8
  %29 = getelementptr inbounds nuw %struct.wtap_dumper, ptr %28, i32 0, i32 3
  %30 = load i32, ptr %29, align 8
  %31 = sext i32 %30 to i64
  %32 = getelementptr [2 x i32], ptr @wtap_encap, i64 0, i64 %31
  %33 = load i32, ptr %32, align 4
  %34 = getelementptr inbounds nuw %struct.t_5VW_Capture_Header, ptr %9, i32 0, i32 0
  %35 = getelementptr inbounds nuw %struct.t_5VW_Info_Header, ptr %34, i32 0, i32 4
  store i32 %33, ptr %35, align 4
  %36 = getelementptr inbounds nuw %struct.t_5VW_Capture_Header, ptr %9, i32 0, i32 0
  %37 = getelementptr inbounds nuw %struct.t_5VW_Info_Header, ptr %36, i32 0, i32 5
  %38 = getelementptr [3 x i32], ptr %37, i64 0, i64 0
  store i32 0, ptr %38, align 4
  %39 = getelementptr inbounds nuw %struct.t_5VW_Capture_Header, ptr %9, i32 0, i32 0
  %40 = getelementptr inbounds nuw %struct.t_5VW_Info_Header, ptr %39, i32 0, i32 5
  %41 = getelementptr [3 x i32], ptr %40, i64 0, i64 1
  store i32 0, ptr %41, align 4
  %42 = getelementptr inbounds nuw %struct.t_5VW_Capture_Header, ptr %9, i32 0, i32 0
  %43 = getelementptr inbounds nuw %struct.t_5VW_Info_Header, ptr %42, i32 0, i32 5
  %44 = getelementptr [3 x i32], ptr %43, i64 0, i64 2
  store i32 0, ptr %44, align 4
  %45 = getelementptr inbounds nuw %struct.t_5VW_Capture_Header, ptr %9, i32 0, i32 1
  %46 = getelementptr inbounds nuw %struct.t_5VW_Attributes_Header, ptr %45, i32 0, i32 0
  store i32 -2147483641, ptr %46, align 4
  %47 = getelementptr inbounds nuw %struct.t_5VW_Capture_Header, ptr %9, i32 0, i32 1
  %48 = getelementptr inbounds nuw %struct.t_5VW_Attributes_Header, ptr %47, i32 0, i32 1
  store i16 4, ptr %48, align 4
  %49 = getelementptr inbounds nuw %struct.t_5VW_Capture_Header, ptr %9, i32 0, i32 1
  %50 = getelementptr inbounds nuw %struct.t_5VW_Attributes_Header, ptr %49, i32 0, i32 2
  store i16 1, ptr %50, align 2
  %51 = call i64 @time(ptr noundef null) #9
  %52 = trunc i64 %51 to i32
  %53 = getelementptr inbounds nuw %struct.t_5VW_Capture_Header, ptr %9, i32 0, i32 2
  store i32 %52, ptr %53, align 4
  %54 = getelementptr inbounds nuw %struct.t_5VW_Capture_Header, ptr %9, i32 0, i32 3
  %55 = getelementptr inbounds nuw %struct.t_5VW_Attributes_Header, ptr %54, i32 0, i32 0
  store i32 536870912, ptr %55, align 4
  %56 = getelementptr inbounds nuw %struct.t_5VW_Capture_Header, ptr %9, i32 0, i32 3
  %57 = getelementptr inbounds nuw %struct.t_5VW_Attributes_Header, ptr %56, i32 0, i32 1
  store i16 4, ptr %57, align 4
  %58 = getelementptr inbounds nuw %struct.t_5VW_Capture_Header, ptr %9, i32 0, i32 3
  %59 = getelementptr inbounds nuw %struct.t_5VW_Attributes_Header, ptr %58, i32 0, i32 2
  store i16 1, ptr %59, align 2
  %60 = load ptr, ptr %8, align 8
  %61 = getelementptr inbounds nuw %struct._5views_dump_t, ptr %60, i32 0, i32 0
  %62 = load i32, ptr %61, align 4
  %63 = getelementptr inbounds nuw %struct.t_5VW_Capture_Header, ptr %9, i32 0, i32 4
  store i32 %62, ptr %63, align 4
  %64 = load ptr, ptr %5, align 8
  %65 = load ptr, ptr %6, align 8
  %66 = call zeroext i1 @wtap_dump_file_write(ptr noundef %64, ptr noundef %9, i64 noundef 56, ptr noundef %65)
  br i1 %66, label %68, label %67

67:                                               ; preds = %19
  store i1 false, ptr %4, align 1
  store i32 1, ptr %10, align 4
  br label %69

68:                                               ; preds = %19
  store i1 true, ptr %4, align 1
  store i32 1, ptr %10, align 4
  br label %69

69:                                               ; preds = %68, %67, %18
  call void @llvm.lifetime.end.p0(i64 56, ptr %9) #9
  call void @llvm.lifetime.end.p0(i64 8, ptr %8) #9
  %70 = load i1, ptr %4, align 1
  ret i1 %70
}