; Function Attrs: null_pointer_is_valid sspstrong uwtable
define internal zeroext i1 @_5views_dump_finish(ptr noundef %0, ptr noundef %1, ptr readnone captures(none) %2) #0 {
  %4 = alloca %struct.t_5VW_Capture_Header, align 4
  %5 = getelementptr inbounds nuw i8, ptr %0, i64 40
  %6 = load ptr, ptr %5, align 8
  call void @llvm.lifetime.start.p0(i64 56, ptr nonnull %4) #6
  %7 = tail call i64 @wtap_dump_file_seek(ptr noundef %0, i64 noundef 0, i32 noundef 0, ptr noundef %1)
  %8 = icmp eq i64 %7, -1
  br i1 %8, label %34, label %9

9:                                                ; preds = %3
  store i32 -1431655766, ptr %4, align 4
  %10 = getelementptr inbounds nuw i8, ptr %4, i64 4
  store i32 32, ptr %10, align 4
  %11 = getelementptr inbounds nuw i8, ptr %4, i64 8
  store i32 65536, ptr %11, align 4
  %12 = getelementptr inbounds nuw i8, ptr %4, i64 12
  store i32 24, ptr %12, align 4
  %13 = getelementptr inbounds nuw i8, ptr %0, i64 16
  %14 = load i32, ptr %13, align 8
  %15 = sext i32 %14 to i64
  %16 = getelementptr [2 x i32], ptr @wtap_encap, i64 0, i64 %15
  %17 = load i32, ptr %16, align 4
  %18 = getelementptr inbounds nuw i8, ptr %4, i64 16
  store i32 %17, ptr %18, align 4
  %19 = getelementptr inbounds nuw i8, ptr %4, i64 20
  store i32 0, ptr %19, align 4
  %20 = getelementptr inbounds nuw i8, ptr %4, i64 24
  store i32 0, ptr %20, align 4
  %21 = getelementptr inbounds nuw i8, ptr %4, i64 28
  store i32 0, ptr %21, align 4
  %22 = getelementptr inbounds nuw i8, ptr %4, i64 32
  store i32 -2147483641, ptr %22, align 4
  %23 = getelementptr inbounds nuw i8, ptr %4, i64 36
  store i16 4, ptr %23, align 4
  %24 = getelementptr inbounds nuw i8, ptr %4, i64 38
  store i16 1, ptr %24, align 2
  %25 = tail call i64 @time(ptr noundef null) #6
  %26 = trunc i64 %25 to i32
  %27 = getelementptr inbounds nuw i8, ptr %4, i64 40
  store i32 %26, ptr %27, align 4
  %28 = getelementptr inbounds nuw i8, ptr %4, i64 44
  store i32 536870912, ptr %28, align 4
  %29 = getelementptr inbounds nuw i8, ptr %4, i64 48
  store i16 4, ptr %29, align 4
  %30 = getelementptr inbounds nuw i8, ptr %4, i64 50
  store i16 1, ptr %30, align 2
  %31 = load i32, ptr %6, align 4
  %32 = getelementptr inbounds nuw i8, ptr %4, i64 52
  store i32 %31, ptr %32, align 4
  %33 = call zeroext i1 @wtap_dump_file_write(ptr noundef %0, ptr noundef nonnull %4, i64 noundef 56, ptr noundef %1)
  br label %34

34:                                               ; preds = %9, %3
  %.0 = phi i1 [ false, %3 ], [ %33, %9 ]
  call void @llvm.lifetime.end.p0(i64 56, ptr nonnull %4) #6
  ret i1 %.0
}